target datalayout = "e-m:e-p270:32:32-p271:32:32-p272:64:64-i64:64-i128:128-f80:128-n8:16:32:64-S128"
target triple = "x86_64-pc-linux-gnu"

%struct.kmac_data_st = type { ptr, ptr, %struct.PROV_DIGEST, i64, i64, i64, i32, [672 x i8], [516 x i8] }
%struct.PROV_DIGEST = type { ptr, ptr, ptr }

@.str.2 = private unnamed_addr constant [54 x i8] c"../openssl/providers/implementations/macs/kmac_prov.c\00", align 1
@__func__.kmac_setkey = private unnamed_addr constant [12 x i8] c"kmac_setkey\00", align 1
@__func__.encode_string = private unnamed_addr constant [14 x i8] c"encode_string\00", align 1
@__func__.bytepad = private unnamed_addr constant [8 x i8] c"bytepad\00", align 1

; Function Attrs: nounwind uwtable
define internal i32 @get_encode_size(i64 noundef %0) #0 {
  %2 = alloca i64, align 8
  %3 = alloca i32, align 4
  %4 = alloca i32, align 4
  store i64 %0, ptr %2, align 8, !tbaa !24
  call void @llvm.lifetime.start.p0(i64 4, ptr %3) #7
  store i32 0, ptr %3, align 4, !tbaa !28
  call void @llvm.lifetime.start.p0(i64 4, ptr %4) #7
  store i32 8, ptr %4, align 4, !tbaa !28
  br label %5

5:                                                ; preds = %14, %1
  %6 = load i64, ptr %2, align 8, !tbaa !24
  %7 = icmp ne i64 %6, 0
  br i1 %7, label %8, label %12

8:                                                ; preds = %5
  %9 = load i32, ptr %3, align 4, !tbaa !28
  %10 = load i32, ptr %4, align 4, !tbaa !28
  %11 = icmp ult i32 %9, %10
  br label %12

12:                                               ; preds = %8, %5
  %13 = phi i1 [ false, %5 ], [ %11, %8 ]
  br i1 %13, label %14, label %19

14:                                               ; preds = %12
  %15 = load i32, ptr %3, align 4, !tbaa !28
  %16 = add i32 %15, 1
  store i32 %16, ptr %3, align 4, !tbaa !28
  %17 = load i64, ptr %2, align 8, !tbaa !24
  %18 = lshr i64 %17, 8
  store i64 %18, ptr %2, align 8, !tbaa !24
  br label %5, !llvm.loop !38

19:                                               ; preds = %12
  %20 = load i32, ptr %3, align 4, !tbaa !28
  %21 = icmp eq i32 %20, 0
  br i1 %21, label %22, label %23

22:                                               ; preds = %19
  store i32 1, ptr %3, align 4, !tbaa !28
  br label %23

23:                                               ; preds = %22, %19
  %24 = load i32, ptr %3, align 4, !tbaa !28
  call void @llvm.lifetime.end.p0(i64 4, ptr %4) #7
  call void @llvm.lifetime.end.p0(i64 4, ptr %3) #7
  ret i32 %24
}

; Function Attrs: nounwind uwtable
define internal i32 @bytepad(ptr noundef %0, ptr noundef %1, ptr noundef %2, i64 noundef %3, ptr noundef %4, i64 noundef %5, i64 noundef %6) #0 {
  %8 = alloca i32, align 4
  %9 = alloca ptr, align 8
  %10 = alloca ptr, align 8
  %11 = alloca ptr, align 8
  %12 = alloca i64, align 8
  %13 = alloca ptr, align 8
  %14 = alloca i64, align 8
  %15 = alloca i64, align 8
  %16 = alloca i32, align 4
  %17 = alloca ptr, align 8
  %18 = alloca i32, align 4
  %19 = alloca i32, align 4
  store ptr %0, ptr %9, align 8, !tbaa !22
  store ptr %1, ptr %10, align 8, !tbaa !29
  store ptr %2, ptr %11, align 8, !tbaa !22
  store i64 %3, ptr %12, align 8, !tbaa !24
  store ptr %4, ptr %13, align 8, !tbaa !22
  store i64 %5, ptr %14, align 8, !tbaa !24
  store i64 %6, ptr %15, align 8, !tbaa !24
  call void @llvm.lifetime.start.p0(i64 4, ptr %16) #7
  call void @llvm.lifetime.start.p0(i64 8, ptr %17) #7
  %20 = load ptr, ptr %9, align 8, !tbaa !22
  store ptr %20, ptr %17, align 8, !tbaa !22
  call void @llvm.lifetime.start.p0(i64 4, ptr %18) #7
  %21 = load i64, ptr %15, align 8, !tbaa !24
  %22 = trunc i64 %21 to i32
  store i32 %22, ptr %18, align 4, !tbaa !28
  %23 = load ptr, ptr %9, align 8, !tbaa !22
  %24 = icmp eq ptr %23, null
  br i1 %24, label %25, label %51

25:                                               ; preds = %7
  %26 = load ptr, ptr %10, align 8, !tbaa !29
  %27 = icmp eq ptr %26, null
  br i1 %27, label %28, label %29

28:                                               ; preds = %25
  call void @ERR_new()
  call void @ERR_set_debug(ptr noundef @.str.2, i32 noundef 608, ptr noundef @__func__.bytepad)
  call void (i32, i32, ptr, ...) @ERR_set_error(i32 noundef 57, i32 noundef 786690, ptr noundef null)
  store i32 0, ptr %8, align 4
  store i32 1, ptr %19, align 4
  br label %122

29:                                               ; preds = %25
  %30 = load i64, ptr %12, align 8, !tbaa !24
  %31 = add i64 2, %30
  %32 = load ptr, ptr %13, align 8, !tbaa !22
  %33 = icmp ne ptr %32, null
  br i1 %33, label %34, label %36

34:                                               ; preds = %29
  %35 = load i64, ptr %14, align 8, !tbaa !24
  br label %37

36:                                               ; preds = %29
  br label %37

37:                                               ; preds = %36, %34
  %38 = phi i64 [ %35, %34 ], [ 0, %36 ]
  %39 = add i64 %31, %38
  %40 = trunc i64 %39 to i32
  store i32 %40, ptr %18, align 4, !tbaa !28
  %41 = load i32, ptr %18, align 4, !tbaa !28
  %42 = sext i32 %41 to i64
  %43 = load i64, ptr %15, align 8, !tbaa !24
  %44 = add i64 %42, %43
  %45 = sub i64 %44, 1
  %46 = load i64, ptr %15, align 8, !tbaa !24
  %47 = udiv i64 %45, %46
  %48 = load i64, ptr %15, align 8, !tbaa !24
  %49 = mul i64 %47, %48
  %50 = load ptr, ptr %10, align 8, !tbaa !29
  store i64 %49, ptr %50, align 8, !tbaa !24
  store i32 1, ptr %8, align 4
  store i32 1, ptr %19, align 4
  br label %122

51:                                               ; preds = %7
  %52 = load i64, ptr %15, align 8, !tbaa !24
  %53 = icmp ule i64 %52, 255
  %54 = zext i1 %53 to i32
  %55 = icmp ne i32 %54, 0
  %56 = xor i1 %55, true
  %57 = xor i1 %56, true
  %58 = zext i1 %57 to i32
  %59 = sext i32 %58 to i64
  %60 = call i64 @llvm.expect.i64(i64 %59, i64 1)
  %61 = icmp ne i64 %60, 0
  br i1 %61, label %63, label %62

62:                                               ; preds = %51
  store i32 0, ptr %8, align 4
  store i32 1, ptr %19, align 4
  br label %122

63:                                               ; preds = %51
  %64 = load ptr, ptr %17, align 8, !tbaa !22
  %65 = getelementptr inbounds nuw i8, ptr %64, i32 1
  store ptr %65, ptr %17, align 8, !tbaa !22
  store i8 1, ptr %64, align 1, !tbaa !35
  %66 = load i64, ptr %15, align 8, !tbaa !24
  %67 = trunc i64 %66 to i8
  %68 = load ptr, ptr %17, align 8, !tbaa !22
  %69 = getelementptr inbounds nuw i8, ptr %68, i32 1
  store ptr %69, ptr %17, align 8, !tbaa !22
  store i8 %67, ptr %68, align 1, !tbaa !35
  %70 = load ptr, ptr %17, align 8, !tbaa !22
  %71 = load ptr, ptr %11, align 8, !tbaa !22
  %72 = load i64, ptr %12, align 8, !tbaa !24
  call void @llvm.memcpy.p0.p0.i64(ptr align 1 %70, ptr align 1 %71, i64 %72, i1 false)
  %73 = load i64, ptr %12, align 8, !tbaa !24
  %74 = load ptr, ptr %17, align 8, !tbaa !22
  %75 = getelementptr inbounds nuw i8, ptr %74, i64 %73
  store ptr %75, ptr %17, align 8, !tbaa !22
  %76 = load ptr, ptr %13, align 8, !tbaa !22
  %77 = icmp ne ptr %76, null
  br i1 %77, label %78, label %88

78:                                               ; preds = %63
  %79 = load i64, ptr %14, align 8, !tbaa !24
  %80 = icmp ugt i64 %79, 0
  br i1 %80, label %81, label %88

81:                                               ; preds = %78
  %82 = load ptr, ptr %17, align 8, !tbaa !22
  %83 = load ptr, ptr %13, align 8, !tbaa !22
  %84 = load i64, ptr %14, align 8, !tbaa !24
  call void @llvm.memcpy.p0.p0.i64(ptr align 1 %82, ptr align 1 %83, i64 %84, i1 false)
  %85 = load i64, ptr %14, align 8, !tbaa !24
  %86 = load ptr, ptr %17, align 8, !tbaa !22
  %87 = getelementptr inbounds nuw i8, ptr %86, i64 %85
  store ptr %87, ptr %17, align 8, !tbaa !22
  br label %88

88:                                               ; preds = %81, %78, %63
  %89 = load ptr, ptr %17, align 8, !tbaa !22
  %90 = load ptr, ptr %9, align 8, !tbaa !22
  %91 = ptrtoint ptr %89 to i64
  %92 = ptrtoint ptr %90 to i64
  %93 = sub i64 %91, %92
  %94 = trunc i64 %93 to i32
  store i32 %94, ptr %16, align 4, !tbaa !28
  %95 = load i32, ptr %16, align 4, !tbaa !28
  %96 = sext i32 %95 to i64
  %97 = load i64, ptr %15, align 8, !tbaa !24
  %98 = add i64 %96, %97
  %99 = sub i64 %98, 1
  %100 = load i64, ptr %15, align 8, !tbaa !24
  %101 = udiv i64 %99, %100
  %102 = load i64, ptr %15, align 8, !tbaa !24
  %103 = mul i64 %101, %102
  %104 = trunc i64 %103 to i32
  store i32 %104, ptr %18, align 4, !tbaa !28
  %105 = load i32, ptr %18, align 4, !tbaa !28
  %106 = load i32, ptr %16, align 4, !tbaa !28
  %107 = icmp ne i32 %105, %106
  br i1 %107, label %108, label %114

108:                                              ; preds = %88
  %109 = load ptr, ptr %17, align 8, !tbaa !22
  %110 = load i32, ptr %18, align 4, !tbaa !28
  %111 = load i32, ptr %16, align 4, !tbaa !28
  %112 = sub nsw i32 %110, %111
  %113 = sext i32 %112 to i64
  call void @llvm.memset.p0.i64(ptr align 1 %109, i8 0, i64 %113, i1 false)
  br label %114

114:                                              ; preds = %108, %88
  %115 = load ptr, ptr %10, align 8, !tbaa !29
  %116 = icmp ne ptr %115, null
  br i1 %116, label %117, label %121

117:                                              ; preds = %114
  %118 = load i32, ptr %18, align 4, !tbaa !28
  %119 = sext i32 %118 to i64
  %120 = load ptr, ptr %10, align 8, !tbaa !29
  store i64 %119, ptr %120, align 8, !tbaa !24
  br label %121

121:                                              ; preds = %117, %114
  store i32 1, ptr %8, align 4
  store i32 1, ptr %19, align 4
  br label %122

122:                                              ; preds = %121, %62, %37, %28
  call void @llvm.lifetime.end.p0(i64 4, ptr %18) #7
  call void @llvm.lifetime.end.p0(i64 8, ptr %17) #7
  call void @llvm.lifetime.end.p0(i64 4, ptr %16) #7
  %123 = load i32, ptr %8, align 4
  ret i32 %123
}

; Function Attrs: nounwind uwtable
define internal i32 @encode_string(ptr noundef %0, i64 noundef %1, ptr noundef %2, ptr noundef %3, i64 noundef %4) #0 {
  %6 = alloca i32, align 4
  %7 = alloca ptr, align 8
  %8 = alloca i64, align 8
  %9 = alloca ptr, align 8
  %10 = alloca ptr, align 8
  %11 = alloca i64, align 8
  %12 = alloca i64, align 8
  %13 = alloca i64, align 8
  %14 = alloca i64, align 8
  %15 = alloca i64, align 8
  %16 = alloca i32, align 4
  store ptr %0, ptr %7, align 8, !tbaa !22
  store i64 %1, ptr %8, align 8, !tbaa !24
  store ptr %2, ptr %9, align 8, !tbaa !29
  store ptr %3, ptr %10, align 8, !tbaa !22
  store i64 %4, ptr %11, align 8, !tbaa !24
  %17 = load ptr, ptr %10, align 8, !tbaa !22
  %18 = icmp eq ptr %17, null
  br i1 %18, label %19, label %21

19:                                               ; preds = %5
  %20 = load ptr, ptr %9, align 8, !tbaa !29
  store i64 0, ptr %20, align 8, !tbaa !24
  br label %68

21:                                               ; preds = %5
  call void @llvm.lifetime.start.p0(i64 8, ptr %12) #7
  call void @llvm.lifetime.start.p0(i64 8, ptr %13) #7
  call void @llvm.lifetime.start.p0(i64 8, ptr %14) #7
  call void @llvm.lifetime.start.p0(i64 8, ptr %15) #7
  %22 = load i64, ptr %11, align 8, !tbaa !24
  %23 = mul i64 8, %22
  store i64 %23, ptr %13, align 8, !tbaa !24
  %24 = load i64, ptr %13, align 8, !tbaa !24
  %25 = call i32 @get_encode_size(i64 noundef %24)
  %26 = zext i32 %25 to i64
  store i64 %26, ptr %14, align 8, !tbaa !24
  %27 = load i64, ptr %14, align 8, !tbaa !24
  %28 = add i64 1, %27
  %29 = load i64, ptr %11, align 8, !tbaa !24
  %30 = add i64 %28, %29
  store i64 %30, ptr %15, align 8, !tbaa !24
  %31 = load i64, ptr %15, align 8, !tbaa !24
  %32 = load i64, ptr %8, align 8, !tbaa !24
  %33 = icmp ugt i64 %31, %32
  br i1 %33, label %34, label %35

34:                                               ; preds = %21
  call void @ERR_new()
  call void @ERR_set_debug(ptr noundef @.str.2, i32 noundef 575, ptr noundef @__func__.encode_string)
  call void (i32, i32, ptr, ...) @ERR_set_error(i32 noundef 57, i32 noundef 202, ptr noundef null)
  store i32 0, ptr %6, align 4
  store i32 1, ptr %16, align 4
  br label %65

35:                                               ; preds = %21
  %36 = load i64, ptr %14, align 8, !tbaa !24
  %37 = trunc i64 %36 to i8
  %38 = load ptr, ptr %7, align 8, !tbaa !22
  %39 = getelementptr inbounds i8, ptr %38, i64 0
  store i8 %37, ptr %39, align 1, !tbaa !35
  %40 = load i64, ptr %14, align 8, !tbaa !24
  store i64 %40, ptr %12, align 8, !tbaa !24
  br label %41

41:                                               ; preds = %53, %35
  %42 = load i64, ptr %12, align 8, !tbaa !24
  %43 = icmp ugt i64 %42, 0
  br i1 %43, label %44, label %56

44:                                               ; preds = %41
  %45 = load i64, ptr %13, align 8, !tbaa !24
  %46 = and i64 %45, 255
  %47 = trunc i64 %46 to i8
  %48 = load ptr, ptr %7, align 8, !tbaa !22
  %49 = load i64, ptr %12, align 8, !tbaa !24
  %50 = getelementptr inbounds nuw i8, ptr %48, i64 %49
  store i8 %47, ptr %50, align 1, !tbaa !35
  %51 = load i64, ptr %13, align 8, !tbaa !24
  %52 = lshr i64 %51, 8
  store i64 %52, ptr %13, align 8, !tbaa !24
  br label %53

53:                                               ; preds = %44
  %54 = load i64, ptr %12, align 8, !tbaa !24
  %55 = add i64 %54, -1
  store i64 %55, ptr %12, align 8, !tbaa !24
  br label %41, !llvm.loop !36

56:                                               ; preds = %41
  %57 = load ptr, ptr %7, align 8, !tbaa !22
  %58 = load i64, ptr %14, align 8, !tbaa !24
  %59 = getelementptr inbounds nuw i8, ptr %57, i64 %58
  %60 = getelementptr inbounds i8, ptr %59, i64 1
  %61 = load ptr, ptr %10, align 8, !tbaa !22
  %62 = load i64, ptr %11, align 8, !tbaa !24
  call void @llvm.memcpy.p0.p0.i64(ptr align 1 %60, ptr align 1 %61, i64 %62, i1 false)
  %63 = load i64, ptr %15, align 8, !tbaa !24
  %64 = load ptr, ptr %9, align 8, !tbaa !29
  store i64 %63, ptr %64, align 8, !tbaa !24
  store i32 0, ptr %16, align 4
  br label %65

65:                                               ; preds = %56, %34
  call void @llvm.lifetime.end.p0(i64 8, ptr %15) #7
  call void @llvm.lifetime.end.p0(i64 8, ptr %14) #7
  call void @llvm.lifetime.end.p0(i64 8, ptr %13) #7
  call void @llvm.lifetime.end.p0(i64 8, ptr %12) #7
  %66 = load i32, ptr %16, align 4
  switch i32 %66, label %71 [
    i32 0, label %67
    i32 1, label %69
  ]

67:                                               ; preds = %65
  br label %68

68:                                               ; preds = %67, %19
  store i32 1, ptr %6, align 4
  br label %69

69:                                               ; preds = %68, %65
  %70 = load i32, ptr %6, align 4
  ret i32 %70

71:                                               ; preds = %65
  unreachable
}

; Function Attrs: nounwind uwtable
define internal i32 @kmac_bytepad_encode_key(ptr noundef %0, i64 noundef %1, ptr noundef %2, ptr noundef %3, i64 noundef %4, i64 noundef %5) #0 {
  %7 = alloca i32, align 4
  %8 = alloca ptr, align 8
  %9 = alloca i64, align 8
  %10 = alloca ptr, align 8
  %11 = alloca ptr, align 8
  %12 = alloca i64, align 8
  %13 = alloca i64, align 8
  %14 = alloca [516 x i8], align 16
  %15 = alloca i64, align 8
  %16 = alloca i32, align 4
  store ptr %0, ptr %8, align 8, !tbaa !22
  store i64 %1, ptr %9, align 8, !tbaa !24
  store ptr %2, ptr %10, align 8, !tbaa !29
  store ptr %3, ptr %11, align 8, !tbaa !22
  store i64 %4, ptr %12, align 8, !tbaa !24
  store i64 %5, ptr %13, align 8, !tbaa !24
  call void @llvm.lifetime.start.p0(i64 516, ptr %14) #7
  call void @llvm.lifetime.start.p0(i64 8, ptr %15) #7
  %17 = getelementptr inbounds [516 x i8], ptr %14, i64 0, i64 0
  %18 = load ptr, ptr %11, align 8, !tbaa !22
  %19 = load i64, ptr %12, align 8, !tbaa !24
  %20 = call i32 @encode_string(ptr noundef %17, i64 noundef 516, ptr noundef %15, ptr noundef %18, i64 noundef %19)
  %21 = icmp ne i32 %20, 0
  br i1 %21, label %23, label %22

22:                                               ; preds = %6
  store i32 0, ptr %7, align 4
  store i32 1, ptr %16, align 4
  br label %51

23:                                               ; preds = %6
  %24 = load ptr, ptr %10, align 8, !tbaa !29
  %25 = getelementptr inbounds [516 x i8], ptr %14, i64 0, i64 0
  %26 = load i64, ptr %15, align 8, !tbaa !24
  %27 = load i64, ptr %13, align 8, !tbaa !24
  %28 = call i32 @bytepad(ptr noundef null, ptr noundef %24, ptr noundef %25, i64 noundef %26, ptr noundef null, i64 noundef 0, i64 noundef %27)
  %29 = icmp ne i32 %28, 0
  br i1 %29, label %31, label %30

30:                                               ; preds = %23
  store i32 0, ptr %7, align 4
  store i32 1, ptr %16, align 4
  br label %51

31:                                               ; preds = %23
  %32 = load ptr, ptr %10, align 8, !tbaa !29
  %33 = load i64, ptr %32, align 8, !tbaa !24
  %34 = load i64, ptr %9, align 8, !tbaa !24
  %35 = icmp ule i64 %33, %34
  %36 = zext i1 %35 to i32
  %37 = icmp ne i32 %36, 0
  %38 = xor i1 %37, true
  %39 = xor i1 %38, true
  %40 = zext i1 %39 to i32
  %41 = sext i32 %40 to i64
  %42 = call i64 @llvm.expect.i64(i64 %41, i64 1)
  %43 = icmp ne i64 %42, 0
  br i1 %43, label %45, label %44

44:                                               ; preds = %31
  store i32 0, ptr %7, align 4
  store i32 1, ptr %16, align 4
  br label %51

45:                                               ; preds = %31
  %46 = load ptr, ptr %8, align 8, !tbaa !22
  %47 = getelementptr inbounds [516 x i8], ptr %14, i64 0, i64 0
  %48 = load i64, ptr %15, align 8, !tbaa !24
  %49 = load i64, ptr %13, align 8, !tbaa !24
  %50 = call i32 @bytepad(ptr noundef %46, ptr noundef null, ptr noundef %47, i64 noundef %48, ptr noundef null, i64 noundef 0, i64 noundef %49)
  store i32 %50, ptr %7, align 4
  store i32 1, ptr %16, align 4
  br label %51

51:                                               ; preds = %45, %44, %30, %22
  call void @llvm.lifetime.end.p0(i64 8, ptr %15) #7
  call void @llvm.lifetime.end.p0(i64 516, ptr %14) #7
  %52 = load i32, ptr %7, align 4
  ret i32 %52
}

; Function Attrs: nounwind uwtable
define internal i32 @kmac_setkey(ptr noundef %0, ptr noundef %1, i64 noundef %2) #0 {
  %4 = alloca i32, align 4
  %5 = alloca ptr, align 8
  %6 = alloca ptr, align 8
  %7 = alloca i64, align 8
  %8 = alloca ptr, align 8
  %9 = alloca i32, align 4
  %10 = alloca i32, align 4
  store ptr %0, ptr %5, align 8, !tbaa !7
  store ptr %1, ptr %6, align 8, !tbaa !22
  store i64 %2, ptr %7, align 8, !tbaa !24
  call void @llvm.lifetime.start.p0(i64 8, ptr %8) #7
  %11 = load ptr, ptr %5, align 8, !tbaa !7
  %12 = getelementptr inbounds nuw %struct.kmac_data_st, ptr %11, i32 0, i32 2
  %13 = call ptr @ossl_prov_digest_md(ptr noundef %12)
  store ptr %13, ptr %8, align 8, !tbaa !34
  call void @llvm.lifetime.start.p0(i64 4, ptr %9) #7
  %14 = load ptr, ptr %8, align 8, !tbaa !34
  %15 = call i32 @EVP_MD_get_block_size(ptr noundef %14)
  store i32 %15, ptr %9, align 4, !tbaa !28
  %16 = load i64, ptr %7, align 8, !tbaa !24
  %17 = icmp ult i64 %16, 4
  br i1 %17, label %21, label %18

18:                                               ; preds = %3
  %19 = load i64, ptr %7, align 8, !tbaa !24
  %20 = icmp ugt i64 %19, 512
  br i1 %20, label %21, label %22

21:                                               ; preds = %18, %3
  call void @ERR_new()
  call void @ERR_set_debug(ptr noundef @.str.2, i32 noundef 269, ptr noundef @__func__.kmac_setkey)
  call void (i32, i32, ptr, ...) @ERR_set_error(i32 noundef 57, i32 noundef 105, ptr noundef null)
  store i32 0, ptr %4, align 4
  store i32 1, ptr %10, align 4
  br label %40

22:                                               ; preds = %18
  %23 = load i32, ptr %9, align 4, !tbaa !28
  %24 = icmp sle i32 %23, 0
  br i1 %24, label %25, label %26

25:                                               ; preds = %22
  call void @ERR_new()
  call void @ERR_set_debug(ptr noundef @.str.2, i32 noundef 292, ptr noundef @__func__.kmac_setkey)
  call void (i32, i32, ptr, ...) @ERR_set_error(i32 noundef 57, i32 noundef 166, ptr noundef null)
  store i32 0, ptr %4, align 4
  store i32 1, ptr %10, align 4
  br label %40

26:                                               ; preds = %22
  %27 = load ptr, ptr %5, align 8, !tbaa !7
  %28 = getelementptr inbounds nuw %struct.kmac_data_st, ptr %27, i32 0, i32 7
  %29 = getelementptr inbounds [672 x i8], ptr %28, i64 0, i64 0
  %30 = load ptr, ptr %5, align 8, !tbaa !7
  %31 = getelementptr inbounds nuw %struct.kmac_data_st, ptr %30, i32 0, i32 4
  %32 = load ptr, ptr %6, align 8, !tbaa !22
  %33 = load i64, ptr %7, align 8, !tbaa !24
  %34 = load i32, ptr %9, align 4, !tbaa !28
  %35 = sext i32 %34 to i64
  %36 = call i32 @kmac_bytepad_encode_key(ptr noundef %29, i64 noundef 672, ptr noundef %31, ptr noundef %32, i64 noundef %33, i64 noundef %35)
  %37 = icmp ne i32 %36, 0
  br i1 %37, label %39, label %38

38:                                               ; preds = %26
  store i32 0, ptr %4, align 4
  store i32 1, ptr %10, align 4
  br label %40

39:                                               ; preds = %26
  store i32 1, ptr %4, align 4
  store i32 1, ptr %10, align 4
  br label %40

40:                                               ; preds = %39, %38, %25, %21
  call void @llvm.lifetime.end.p0(i64 4, ptr %9) #7
  call void @llvm.lifetime.end.p0(i64 8, ptr %8) #7
  %41 = load i32, ptr %4, align 4
  ret i32 %41
}