; Function Attrs: nounwind uwtable
define internal fastcc range(i32 0, 2) i32 @kmac_setkey(ptr noundef %0, ptr noundef readonly captures(address_is_null) %1, i64 noundef %2) unnamed_addr #0 {
  %4 = alloca [516 x i8], align 16
  %5 = getelementptr inbounds nuw i8, ptr %0, i64 16
  %6 = tail call ptr @ossl_prov_digest_md(ptr noundef nonnull %5) #7
  %7 = tail call i32 @EVP_MD_get_block_size(ptr noundef %6) #7
  %8 = add i64 %2, -513
  %or.cond = icmp ult i64 %8, -509
  br i1 %or.cond, label %9, label %10

9:                                                ; preds = %3
  tail call void @ERR_new() #7
  tail call void @ERR_set_debug(ptr noundef nonnull @.str.2, i32 noundef 269, ptr noundef nonnull @__func__.kmac_setkey) #7
  tail call void (i32, i32, ptr, ...) @ERR_set_error(i32 noundef 57, i32 noundef 105, ptr noundef null) #7
  br label %65

10:                                               ; preds = %3
  %11 = icmp slt i32 %7, 1
  br i1 %11, label %12, label %13

12:                                               ; preds = %10
  tail call void @ERR_new() #7
  tail call void @ERR_set_debug(ptr noundef nonnull @.str.2, i32 noundef 292, ptr noundef nonnull @__func__.kmac_setkey) #7
  tail call void (i32, i32, ptr, ...) @ERR_set_error(i32 noundef 57, i32 noundef 166, ptr noundef null) #7
  br label %65

13:                                               ; preds = %10
  %14 = getelementptr inbounds nuw i8, ptr %0, i64 68
  %15 = getelementptr inbounds nuw i8, ptr %0, i64 48
  %16 = zext nneg i32 %7 to i64
  call void @llvm.lifetime.start.p0(i64 516, ptr nonnull %4) #7
  %17 = icmp eq ptr %1, null
  br i1 %17, label %39, label %18

18:                                               ; preds = %13
  %19 = shl nuw nsw i64 %2, 3
  br label %.lr.ph.i.i.i

.lr.ph.i.i.i:                                     ; preds = %.lr.ph.i.i.i, %18
  %.09.i.i.i = phi i64 [ %21, %.lr.ph.i.i.i ], [ %19, %18 ]
  %.078.i.i.i = phi i32 [ %20, %.lr.ph.i.i.i ], [ 0, %18 ]
  %20 = add nuw nsw i32 %.078.i.i.i, 1
  %21 = lshr i64 %.09.i.i.i, 8
  %22 = icmp samesign ugt i64 %.09.i.i.i, 255
  %23 = icmp samesign ult i32 %.078.i.i.i, 7
  %24 = select i1 %22, i1 %23, i1 false
  br i1 %24, label %.lr.ph.i.i.i, label %get_encode_size.exit.i.i, !llvm.loop !21

get_encode_size.exit.i.i:                         ; preds = %.lr.ph.i.i.i
  %25 = zext nneg i32 %20 to i64
  %26 = add nuw nsw i64 %2, 1
  %27 = add nuw nsw i64 %26, %25
  %28 = icmp samesign ugt i64 %27, 516
  br i1 %28, label %encode_string.exit.i, label %29

29:                                               ; preds = %get_encode_size.exit.i.i
  %30 = trunc i32 %20 to i8
  store i8 %30, ptr %4, align 16, !tbaa !20
  br label %31

31:                                               ; preds = %31, %29
  %.02531.i.i = phi i64 [ %25, %29 ], [ %35, %31 ]
  %.02630.i.i = phi i64 [ %19, %29 ], [ %34, %31 ]
  %32 = trunc i64 %.02630.i.i to i8
  %33 = getelementptr inbounds nuw i8, ptr %4, i64 %.02531.i.i
  store i8 %32, ptr %33, align 1, !tbaa !20
  %34 = lshr i64 %.02630.i.i, 8
  %35 = add nsw i64 %.02531.i.i, -1
  %.not.i.i = icmp eq i64 %35, 0
  br i1 %.not.i.i, label %36, label %31, !llvm.loop !30

36:                                               ; preds = %31
  %37 = getelementptr inbounds nuw i8, ptr %4, i64 %25
  %38 = getelementptr inbounds nuw i8, ptr %37, i64 1
  call void @llvm.memcpy.p0.p0.i64(ptr noundef nonnull align 1 dereferenceable(1) %38, ptr noundef nonnull readonly align 1 dereferenceable(1) %1, i64 range(i64 4, 513) %2, i1 false)
  br label %39

encode_string.exit.i:                             ; preds = %get_encode_size.exit.i.i
  tail call void @ERR_new() #7
  tail call void @ERR_set_debug(ptr noundef nonnull @.str.2, i32 noundef 575, ptr noundef nonnull @__func__.encode_string) #7
  tail call void (i32, i32, ptr, ...) @ERR_set_error(i32 noundef 57, i32 noundef 202, ptr noundef null) #7
  br label %64

39:                                               ; preds = %36, %13
  %.013.ph.i = phi i64 [ 0, %13 ], [ %27, %36 ]
  %40 = add nuw nsw i64 %16, 1
  %41 = add nuw nsw i64 %40, %.013.ph.i
  %42 = urem i64 %41, %16
  %43 = sub nsw i64 %41, %42
  store i64 %43, ptr %15, align 8, !tbaa !24
  %44 = icmp ult i64 %43, 673
  %45 = icmp ult i32 %7, 256
  %or.cond15 = select i1 %44, i1 %45, i1 false
  br i1 %or.cond15, label %46, label %64, !prof !31

46:                                               ; preds = %39
  %47 = getelementptr inbounds nuw i8, ptr %0, i64 69
  store i8 1, ptr %14, align 1, !tbaa !20
  %48 = trunc nuw i32 %7 to i8
  %49 = getelementptr inbounds nuw i8, ptr %0, i64 70
  store i8 %48, ptr %47, align 1, !tbaa !20
  call void @llvm.memcpy.p0.p0.i64(ptr nonnull align 1 %49, ptr nonnull readonly align 16 %4, i64 %.013.ph.i, i1 false)
  %50 = getelementptr inbounds nuw i8, ptr %49, i64 %.013.ph.i
  %.0.fr.i.i = freeze ptr %50
  %51 = ptrtoint ptr %.0.fr.i.i to i64
  %52 = ptrtoint ptr %14 to i64
  %53 = sub i64 %51, %52
  %54 = trunc i64 %53 to i32
  %sext.i.i = shl i64 %53, 32
  %55 = ashr exact i64 %sext.i.i, 32
  %56 = add nsw i64 %16, -1
  %57 = add nsw i64 %56, %55
  %58 = urem i64 %57, %16
  %59 = sub nuw nsw i64 %57, %58
  %60 = trunc i64 %59 to i32
  %.not.i10.i = icmp eq i32 %60, %54
  br i1 %.not.i10.i, label %kmac_bytepad_encode_key.exit, label %61

61:                                               ; preds = %46
  %62 = sub i64 %59, %53
  %sext53.i.i = shl i64 %62, 32
  %63 = ashr exact i64 %sext53.i.i, 32
  tail call void @llvm.memset.p0.i64(ptr align 1 %.0.fr.i.i, i8 0, i64 %63, i1 false)
  br label %kmac_bytepad_encode_key.exit

kmac_bytepad_encode_key.exit:                     ; preds = %46, %61
  call void @llvm.lifetime.end.p0(i64 516, ptr nonnull %4) #7
  br label %65

64:                                               ; preds = %encode_string.exit.i, %39
  call void @llvm.lifetime.end.p0(i64 516, ptr nonnull %4) #7
  br label %65

65:                                               ; preds = %64, %kmac_bytepad_encode_key.exit, %12, %9
  %.0 = phi i32 [ 0, %9 ], [ 0, %12 ], [ 0, %64 ], [ 1, %kmac_bytepad_encode_key.exit ]
  ret i32 %.0
}